Certificate:
    Data:
        Version: 3 (0x2)
        Serial Number: 1 (0x1)
        Signature Algorithm: sha1WithRSAEncryption
        Issuer: C=US, ST=Texas, L=Austin, O=Symbiot, Inc., OU=Symbiot Threat Profiler [manage_keys v1.0.0]/Email=beta@symbiot.com, CN=Root Certificate
        Validity
            Not Before: Mar 30 06:26:44 2003 GMT
            Not After : Mar 29 06:26:44 2004 GMT
        Subject: C=US, ST=Texas, L=Austin, O=Symbiot, Inc., OU=Symbiot Threat Profiler [manage_keys v1.0.0], CN=aviary.symbiot.com/Email=beta@symbiot.com
        Subject Public Key Info:
            Public Key Algorithm: rsaEncryption
            RSA Public Key: (1024 bit)
                Modulus (1024 bit):
                    00:a2:8b:dc:ef:df:84:aa:54:5f:91:99:6d:e4:61:
                    30:17:0b:81:33:3d:d2:24:b1:a7:42:12:bd:09:b8:
                    49:f7:6f:db:bf:4e:7e:12:9f:ba:90:d4:eb:52:4f:
                    79:9c:10:34:57:a7:f5:fd:b6:79:81:54:89:21:20:
                    ec:c1:4b:47:75:82:ef:db:f8:3b:c3:db:b5:78:f8:
                    b6:74:f2:30:f0:0e:40:86:e1:56:17:c4:89:76:d2:
                    36:cf:c7:cf:47:b1:11:ce:c4:c9:0c:88:de:5a:1f:
                    e5:5f:a1:f0:20:5b:bb:c5:4c:6e:e0:85:5c:5e:b1:
                    58:a0:fe:6e:e9:41:ba:93:cf
                Exponent: 65537 (0x10001)
        X509v3 extensions:
            X509v3 Basic Constraints: 
                CA:FALSE
            Netscape Comment: 
                Symbiot Threat Profiler- OpenSSL Certificate
            X509v3 Subject Key Identifier: 
                D2:D1:09:77:C8:A6:5B:AE:CD:00:0E:37:7B:5C:15:01:BE:3A:85:F9
            X509v3 Authority Key Identifier: 
                keyid:8B:36:D0:C9:35:48:24:EB:D1:71:FF:3E:12:74:9E:DA:CD:EF:34:A6
                DirName:/C=US/ST=Texas/L=Austin/O=Symbiot, Inc./OU=Symbiot Threat Profiler [manage_keys v1.0.0]/Email=beta@symbiot.com/CN=Root Certificate
                serial:00

    Signature Algorithm: sha1WithRSAEncryption
        70:bf:7e:57:4e:b1:e6:fe:db:e2:af:6f:ea:57:9a:f5:c5:92:
        e3:66:e5:64:4a:20:8c:91:0f:e0:2f:af:33:42:5f:58:0f:43:
        fc:91:6a:16:a8:65:32:25:7b:56:bb:fe:52:26:6e:ff:a9:17:
        cb:fc:b0:fb:86:65:78:63:39:d8:46:cb:ae:72:43:fa:1b:66:
        24:52:81:43:f2:7a:34:6f:aa:57:5b:7d:9e:b7:d4:eb:e0:f6:
        68:b0:46:b6:17:92:3a:58:be:98:55:68:20:fa:32:c2:ca:43:
        58:58:86:92:2a:f1:c5:48:d7:b0:bb:79:05:38:5f:52:8e:7b:
        3e:44
-----BEGIN CERTIFICATE-----
MIIEQjCCA6ugAwIBAgIBATANBgkqhkiG9w0BAQUFADCBuTELMAkGA1UEBhMCVVMx
DjAMBgNVBAgTBVRleGFzMQ8wDQYDVQQHEwZBdXN0aW4xFjAUBgNVBAoTDVN5bWJp
b3QsIEluYy4xNTAzBgNVBAsULFN5bWJpb3QgVGhyZWF0IFByb2ZpbGVyIFttYW5h
Z2Vfa2V5cyB2MS4wLjBdMR8wHQYJKoZIhvcNAQkBFhBiZXRhQHN5bWJpb3QuY29t
MRkwFwYDVQQDExBSb290IENlcnRpZmljYXRlMB4XDTAzMDMzMDA2MjY0NFoXDTA0
MDMyOTA2MjY0NFowgbsxCzAJBgNVBAYTAlVTMQ4wDAYDVQQIEwVUZXhhczEPMA0G
A1UEBxMGQXVzdGluMRYwFAYDVQQKEw1TeW1iaW90LCBJbmMuMTUwMwYDVQQLFCxT
eW1iaW90IFRocmVhdCBQcm9maWxlciBbbWFuYWdlX2tleXMgdjEuMC4wXTEbMBkG
A1UEAxMSYXZpYXJ5LnN5bWJpb3QuY29tMR8wHQYJKoZIhvcNAQkBFhBiZXRhQHN5
bWJpb3QuY29tMIGfMA0GCSqGSIb3DQEBAQUAA4GNADCBiQKBgQCii9zv34SqVF+R
mW3kYTAXC4EzPdIksadCEr0JuEn3b9u/Tn4Sn7qQ1OtST3mcEDRXp/X9tnmBVIkh
IOzBS0d1gu/b+DvD27V4+LZ08jDwDkCG4VYXxIl20jbPx89HsRHOxMkMiN5aH+Vf
ofAgW7vFTG7ghVxesVig/m7pQbqTzwIDAQABo4IBVDCCAVAwCQYDVR0TBAIwADA7
BglghkgBhvhCAQ0ELhYsU3ltYmlvdCBUaHJlYXQgUHJvZmlsZXItIE9wZW5TU0wg
Q2VydGlmaWNhdGUwHQYDVR0OBBYEFNLRCXfIpluuzQAON3tcFQG+OoX5MIHmBgNV
HSMEgd4wgduAFIs20Mk1SCTr0XH/PhJ0ntrN7zSmoYG/pIG8MIG5MQswCQYDVQQG
EwJVUzEOMAwGA1UECBMFVGV4YXMxDzANBgNVBAcTBkF1c3RpbjEWMBQGA1UEChMN
U3ltYmlvdCwgSW5jLjE1MDMGA1UECxQsU3ltYmlvdCBUaHJlYXQgUHJvZmlsZXIg
W21hbmFnZV9rZXlzIHYxLjAuMF0xHzAdBgkqhkiG9w0BCQEWEGJldGFAc3ltYmlv
dC5jb20xGTAXBgNVBAMTEFJvb3QgQ2VydGlmaWNhdGWCAQAwDQYJKoZIhvcNAQEF
BQADgYEAcL9+V06x5v7b4q9v6lea9cWS42blZEogjJEP4C+vM0JfWA9D/JFqFqhl
MiV7Vrv+UiZu/6kXy/yw+4ZleGM52EbLrnJD+htmJFKBQ/J6NG+qV1t9nrfU6+D2
aLBGtheSOli+mFVoIPoywspDWFiGkirxxUjXsLt5BThfUo57PkQ=
-----END CERTIFICATE-----
-----BEGIN RSA PRIVATE KEY-----
MIICXAIBAAKBgQCii9zv34SqVF+RmW3kYTAXC4EzPdIksadCEr0JuEn3b9u/Tn4S
n7qQ1OtST3mcEDRXp/X9tnmBVIkhIOzBS0d1gu/b+DvD27V4+LZ08jDwDkCG4VYX
xIl20jbPx89HsRHOxMkMiN5aH+VfofAgW7vFTG7ghVxesVig/m7pQbqTzwIDAQAB
AoGAW2iZ849YNM1D/UYyJWd+Osdufdl7LsV1ENQm2Kt5dRvDkR7cCS8oJMCIIX6u
HdSDCvRagrY2OEPI5gd0/PKPmSFUCAAus0K1WxhEH5ux+G80VX1Tt69Qqc5+b8DQ
M05SieyMDYOK0NLEEXDXlvZCVmyUDGfcAAofBeuQ2c6+u9kCQQDTy8J+POiByHHk
eIcBNgS8HVXRAGQxEMvQuq58B53ywXG/6uZQ31sMoF7XseVQQBjG25oj4B4ShddH
1BHGRBXVAkEAxHizgz4wTLsba4TGJe0zHzP5xJe15x1G2vItkW+nliN2OBFj+sxd
CeLU9Bt1qhUNyD99nf2I4Vicq6GslCqhEwJACV5jDRh+pHcMarHWLvyHuxaFHEir
Jex7R5FqdHwVxY4/DOFELOGkcmuJpnrtDN64+dru95VLX0BiZIACBUYvvQJAOTq3
f5lT1GYEPLN2TIHljEdFkABpGiMrCofUwjJ17IPz4a0fJGT3DPQn99sv0RVE6Hmm
C6lYf9uh91SmwpoQRQJBAM9C7U7+JQapPCVi2kGSTrV7/hk1YUBX1G0vP+7tPyil
Vjxqhb9i+srSllshEr3UKDf9drpTP6kijcRaiZ+DCE8=
-----END RSA PRIVATE KEY-----
